target datalayout = "e-m:e-p270:32:32-p271:32:32-p272:64:64-i64:64-i128:128-f80:128-n8:16:32:64-S128"
target triple = "x86_64-pc-linux-gnu"

%struct.AVFilterLink = type { ptr, ptr, ptr, ptr, i32, i32, i32, i32, %struct.AVRational, i32, i32, i32, %struct.AVChannelLayout, %struct.AVRational, ptr, i32, %struct.AVFilterFormatsConfig, %struct.AVFilterFormatsConfig }
%struct.AVChannelLayout = type { i32, i32, %union.anon.1, ptr }
%union.anon.1 = type { i64 }
%struct.AVRational = type { i32, i32 }
%struct.AVFilterFormatsConfig = type { ptr, ptr, ptr, ptr, ptr }
%struct.AVFilterContext = type { ptr, ptr, ptr, ptr, ptr, i32, ptr, ptr, i32, ptr, ptr, i32, i32, ptr, ptr, ptr, ptr, i32, ptr, i32, i32 }
%struct.CASContext = type { ptr, float, i32, i32, i32, [4 x i32], [4 x i32], ptr, ptr }
%struct.AVPixFmtDescriptor = type { ptr, i8, i8, i8, i64, [4 x %struct.AVComponentDescriptor], ptr }
%struct.AVComponentDescriptor = type { i32, i32, i32, i32, i32 }

; Function Attrs: cold nounwind optsize uwtable
define internal i32 @config_input(ptr noundef %0) #2 {
  %2 = alloca ptr, align 8
  %3 = alloca ptr, align 8
  %4 = alloca ptr, align 8
  %5 = alloca ptr, align 8
  store ptr %0, ptr %2, align 8, !tbaa !4
  call void @llvm.lifetime.start.p0(i64 8, ptr %3) #9
  %6 = load ptr, ptr %2, align 8, !tbaa !4
  %7 = getelementptr inbounds nuw %struct.AVFilterLink, ptr %6, i32 0, i32 2
  %8 = load ptr, ptr %7, align 8, !tbaa !11
  store ptr %8, ptr %3, align 8, !tbaa !23
  call void @llvm.lifetime.start.p0(i64 8, ptr %4) #9
  %9 = load ptr, ptr %3, align 8, !tbaa !23
  %10 = getelementptr inbounds nuw %struct.AVFilterContext, ptr %9, i32 0, i32 9
  %11 = load ptr, ptr %10, align 8, !tbaa !34
  store ptr %11, ptr %4, align 8, !tbaa !35
  call void @llvm.lifetime.start.p0(i64 8, ptr %5) #9
  %12 = load ptr, ptr %2, align 8, !tbaa !4
  %13 = getelementptr inbounds nuw %struct.AVFilterLink, ptr %12, i32 0, i32 5
  %14 = load i32, ptr %13, align 4, !tbaa !49
  %15 = call ptr @av_pix_fmt_desc_get(i32 noundef %14)
  store ptr %15, ptr %5, align 8, !tbaa !50
  %16 = load ptr, ptr %5, align 8, !tbaa !50
  %17 = getelementptr inbounds nuw %struct.AVPixFmtDescriptor, ptr %16, i32 0, i32 3
  %18 = load i8, ptr %17, align 2, !tbaa !52
  %19 = call i1 @llvm.is.constant.i8(i8 %18)
  br i1 %19, label %31, label %20

20:                                               ; preds = %1
  %21 = load ptr, ptr %2, align 8, !tbaa !4
  %22 = getelementptr inbounds nuw %struct.AVFilterLink, ptr %21, i32 0, i32 7
  %23 = load i32, ptr %22, align 4, !tbaa !38
  %24 = sub nsw i32 0, %23
  %25 = load ptr, ptr %5, align 8, !tbaa !50
  %26 = getelementptr inbounds nuw %struct.AVPixFmtDescriptor, ptr %25, i32 0, i32 3
  %27 = load i8, ptr %26, align 2, !tbaa !52
  %28 = zext i8 %27 to i32
  %29 = ashr i32 %24, %28
  %30 = sub nsw i32 0, %29
  br label %47

31:                                               ; preds = %1
  %32 = load ptr, ptr %2, align 8, !tbaa !4
  %33 = getelementptr inbounds nuw %struct.AVFilterLink, ptr %32, i32 0, i32 7
  %34 = load i32, ptr %33, align 4, !tbaa !38
  %35 = load ptr, ptr %5, align 8, !tbaa !50
  %36 = getelementptr inbounds nuw %struct.AVPixFmtDescriptor, ptr %35, i32 0, i32 3
  %37 = load i8, ptr %36, align 2, !tbaa !52
  %38 = zext i8 %37 to i32
  %39 = shl i32 1, %38
  %40 = add nsw i32 %34, %39
  %41 = sub nsw i32 %40, 1
  %42 = load ptr, ptr %5, align 8, !tbaa !50
  %43 = getelementptr inbounds nuw %struct.AVPixFmtDescriptor, ptr %42, i32 0, i32 3
  %44 = load i8, ptr %43, align 2, !tbaa !52
  %45 = zext i8 %44 to i32
  %46 = ashr i32 %41, %45
  br label %47

47:                                               ; preds = %31, %20
  %48 = phi i32 [ %30, %20 ], [ %46, %31 ]
  %49 = load ptr, ptr %4, align 8, !tbaa !35
  %50 = getelementptr inbounds nuw %struct.CASContext, ptr %49, i32 0, i32 5
  %51 = getelementptr inbounds [4 x i32], ptr %50, i64 0, i64 2
  store i32 %48, ptr %51, align 8, !tbaa !54
  %52 = load ptr, ptr %4, align 8, !tbaa !35
  %53 = getelementptr inbounds nuw %struct.CASContext, ptr %52, i32 0, i32 5
  %54 = getelementptr inbounds [4 x i32], ptr %53, i64 0, i64 1
  store i32 %48, ptr %54, align 4, !tbaa !54
  %55 = load ptr, ptr %2, align 8, !tbaa !4
  %56 = getelementptr inbounds nuw %struct.AVFilterLink, ptr %55, i32 0, i32 7
  %57 = load i32, ptr %56, align 4, !tbaa !38
  %58 = load ptr, ptr %4, align 8, !tbaa !35
  %59 = getelementptr inbounds nuw %struct.CASContext, ptr %58, i32 0, i32 5
  %60 = getelementptr inbounds [4 x i32], ptr %59, i64 0, i64 3
  store i32 %57, ptr %60, align 4, !tbaa !54
  %61 = load ptr, ptr %4, align 8, !tbaa !35
  %62 = getelementptr inbounds nuw %struct.CASContext, ptr %61, i32 0, i32 5
  %63 = getelementptr inbounds [4 x i32], ptr %62, i64 0, i64 0
  store i32 %57, ptr %63, align 8, !tbaa !54
  %64 = load ptr, ptr %5, align 8, !tbaa !50
  %65 = getelementptr inbounds nuw %struct.AVPixFmtDescriptor, ptr %64, i32 0, i32 2
  %66 = load i8, ptr %65, align 1, !tbaa !55
  %67 = call i1 @llvm.is.constant.i8(i8 %66)
  br i1 %67, label %79, label %68

68:                                               ; preds = %47
  %69 = load ptr, ptr %2, align 8, !tbaa !4
  %70 = getelementptr inbounds nuw %struct.AVFilterLink, ptr %69, i32 0, i32 6
  %71 = load i32, ptr %70, align 8, !tbaa !37
  %72 = sub nsw i32 0, %71
  %73 = load ptr, ptr %5, align 8, !tbaa !50
  %74 = getelementptr inbounds nuw %struct.AVPixFmtDescriptor, ptr %73, i32 0, i32 2
  %75 = load i8, ptr %74, align 1, !tbaa !55
  %76 = zext i8 %75 to i32
  %77 = ashr i32 %72, %76
  %78 = sub nsw i32 0, %77
  br label %95

79:                                               ; preds = %47
  %80 = load ptr, ptr %2, align 8, !tbaa !4
  %81 = getelementptr inbounds nuw %struct.AVFilterLink, ptr %80, i32 0, i32 6
  %82 = load i32, ptr %81, align 8, !tbaa !37
  %83 = load ptr, ptr %5, align 8, !tbaa !50
  %84 = getelementptr inbounds nuw %struct.AVPixFmtDescriptor, ptr %83, i32 0, i32 2
  %85 = load i8, ptr %84, align 1, !tbaa !55
  %86 = zext i8 %85 to i32
  %87 = shl i32 1, %86
  %88 = add nsw i32 %82, %87
  %89 = sub nsw i32 %88, 1
  %90 = load ptr, ptr %5, align 8, !tbaa !50
  %91 = getelementptr inbounds nuw %struct.AVPixFmtDescriptor, ptr %90, i32 0, i32 2
  %92 = load i8, ptr %91, align 1, !tbaa !55
  %93 = zext i8 %92 to i32
  %94 = ashr i32 %89, %93
  br label %95

95:                                               ; preds = %79, %68
  %96 = phi i32 [ %78, %68 ], [ %94, %79 ]
  %97 = load ptr, ptr %4, align 8, !tbaa !35
  %98 = getelementptr inbounds nuw %struct.CASContext, ptr %97, i32 0, i32 6
  %99 = getelementptr inbounds [4 x i32], ptr %98, i64 0, i64 2
  store i32 %96, ptr %99, align 8, !tbaa !54
  %100 = load ptr, ptr %4, align 8, !tbaa !35
  %101 = getelementptr inbounds nuw %struct.CASContext, ptr %100, i32 0, i32 6
  %102 = getelementptr inbounds [4 x i32], ptr %101, i64 0, i64 1
  store i32 %96, ptr %102, align 4, !tbaa !54
  %103 = load ptr, ptr %2, align 8, !tbaa !4
  %104 = getelementptr inbounds nuw %struct.AVFilterLink, ptr %103, i32 0, i32 6
  %105 = load i32, ptr %104, align 8, !tbaa !37
  %106 = load ptr, ptr %4, align 8, !tbaa !35
  %107 = getelementptr inbounds nuw %struct.CASContext, ptr %106, i32 0, i32 6
  %108 = getelementptr inbounds [4 x i32], ptr %107, i64 0, i64 3
  store i32 %105, ptr %108, align 4, !tbaa !54
  %109 = load ptr, ptr %4, align 8, !tbaa !35
  %110 = getelementptr inbounds nuw %struct.CASContext, ptr %109, i32 0, i32 6
  %111 = getelementptr inbounds [4 x i32], ptr %110, i64 0, i64 0
  store i32 %105, ptr %111, align 8, !tbaa !54
  %112 = load ptr, ptr %5, align 8, !tbaa !50
  %113 = getelementptr inbounds nuw %struct.AVPixFmtDescriptor, ptr %112, i32 0, i32 5
  %114 = getelementptr inbounds [4 x %struct.AVComponentDescriptor], ptr %113, i64 0, i64 0
  %115 = getelementptr inbounds nuw %struct.AVComponentDescriptor, ptr %114, i32 0, i32 4
  %116 = load i32, ptr %115, align 8, !tbaa !56
  %117 = load ptr, ptr %4, align 8, !tbaa !35
  %118 = getelementptr inbounds nuw %struct.CASContext, ptr %117, i32 0, i32 4
  store i32 %116, ptr %118, align 4, !tbaa !58
  %119 = load ptr, ptr %5, align 8, !tbaa !50
  %120 = getelementptr inbounds nuw %struct.AVPixFmtDescriptor, ptr %119, i32 0, i32 1
  %121 = load i8, ptr %120, align 8, !tbaa !59
  %122 = zext i8 %121 to i32
  %123 = load ptr, ptr %4, align 8, !tbaa !35
  %124 = getelementptr inbounds nuw %struct.CASContext, ptr %123, i32 0, i32 3
  store i32 %122, ptr %124, align 8, !tbaa !60
  %125 = load ptr, ptr %4, align 8, !tbaa !35
  %126 = getelementptr inbounds nuw %struct.CASContext, ptr %125, i32 0, i32 4
  %127 = load i32, ptr %126, align 4, !tbaa !58
  %128 = icmp sle i32 %127, 8
  %129 = select i1 %128, ptr @cas_slice8, ptr @cas_slice16
  %130 = load ptr, ptr %4, align 8, !tbaa !35
  %131 = getelementptr inbounds nuw %struct.CASContext, ptr %130, i32 0, i32 8
  store ptr %129, ptr %131, align 8, !tbaa !42
  call void @llvm.lifetime.end.p0(i64 8, ptr %5) #9
  call void @llvm.lifetime.end.p0(i64 8, ptr %4) #9
  call void @llvm.lifetime.end.p0(i64 8, ptr %3) #9
  ret i32 0
}