; Function Attrs: cold nounwind optsize uwtable
define internal noundef i32 @config_input(ptr noundef readonly captures(none) %0) #2 {
  %2 = getelementptr inbounds nuw i8, ptr %0, i64 16
  %3 = load ptr, ptr %2, align 8, !tbaa !9
  %4 = getelementptr inbounds nuw i8, ptr %3, i64 72
  %5 = load ptr, ptr %4, align 8, !tbaa !33
  %6 = getelementptr inbounds nuw i8, ptr %0, i64 36
  %7 = load i32, ptr %6, align 4, !tbaa !46
  %8 = tail call ptr @av_pix_fmt_desc_get(i32 noundef %7) #6
  %9 = getelementptr inbounds nuw i8, ptr %0, i64 44
  %10 = load i32, ptr %9, align 4, !tbaa !35
  %11 = sub nsw i32 0, %10
  %12 = getelementptr inbounds nuw i8, ptr %8, i64 10
  %13 = load i8, ptr %12, align 2, !tbaa !47
  %14 = zext nneg i8 %13 to i32
  %15 = ashr i32 %11, %14
  %16 = sub nsw i32 0, %15
  %17 = getelementptr inbounds nuw i8, ptr %5, i64 24
  %18 = getelementptr inbounds nuw i8, ptr %5, i64 32
  store i32 %16, ptr %18, align 8, !tbaa !49
  %19 = getelementptr inbounds nuw i8, ptr %5, i64 28
  store i32 %16, ptr %19, align 4, !tbaa !49
  %20 = getelementptr inbounds nuw i8, ptr %0, i64 44
  %21 = load i32, ptr %20, align 4, !tbaa !35
  %22 = getelementptr inbounds nuw i8, ptr %5, i64 36
  store i32 %21, ptr %22, align 4, !tbaa !49
  store i32 %21, ptr %17, align 8, !tbaa !49
  %23 = getelementptr inbounds nuw i8, ptr %0, i64 40
  %24 = load i32, ptr %23, align 8, !tbaa !34
  %25 = sub nsw i32 0, %24
  %26 = getelementptr inbounds nuw i8, ptr %8, i64 9
  %27 = load i8, ptr %26, align 1, !tbaa !50
  %28 = zext nneg i8 %27 to i32
  %29 = ashr i32 %25, %28
  %30 = sub nsw i32 0, %29
  %31 = getelementptr inbounds nuw i8, ptr %5, i64 40
  %32 = getelementptr inbounds nuw i8, ptr %5, i64 48
  store i32 %30, ptr %32, align 8, !tbaa !49
  %33 = getelementptr inbounds nuw i8, ptr %5, i64 44
  store i32 %30, ptr %33, align 4, !tbaa !49
  %34 = getelementptr inbounds nuw i8, ptr %0, i64 40
  %35 = load i32, ptr %34, align 8, !tbaa !34
  %36 = getelementptr inbounds nuw i8, ptr %5, i64 52
  store i32 %35, ptr %36, align 4, !tbaa !49
  store i32 %35, ptr %31, align 8, !tbaa !49
  %37 = getelementptr inbounds nuw i8, ptr %8, i64 40
  %38 = load i32, ptr %37, align 8, !tbaa !51
  %39 = getelementptr inbounds nuw i8, ptr %5, i64 20
  store i32 %38, ptr %39, align 4, !tbaa !53
  %40 = getelementptr inbounds nuw i8, ptr %8, i64 8
  %41 = load i8, ptr %40, align 8, !tbaa !54
  %42 = zext i8 %41 to i32
  %43 = getelementptr inbounds nuw i8, ptr %5, i64 16
  store i32 %42, ptr %43, align 8, !tbaa !55
  %44 = icmp slt i32 %38, 9
  %45 = select i1 %44, ptr @cas_slice8, ptr @cas_slice16
  %46 = getelementptr inbounds nuw i8, ptr %5, i64 64
  store ptr %45, ptr %46, align 8, !tbaa !39
  ret i32 0
}